target datalayout = "e-m:e-p270:32:32-p271:32:32-p272:64:64-i64:64-i128:128-f80:128-n8:16:32:64-S128"
target triple = "x86_64-pc-linux-gnu"

%struct._rtp_dyn_payload_t = type { ptr, i64 }

@rtp_dyn_payloads = internal global ptr null, align 8

; Function Attrs: null_pointer_is_valid sspstrong uwtable
define void @rtp_dyn_payload_free(ptr noundef %0) #1 {
  %2 = alloca ptr, align 8
  store ptr %0, ptr %2, align 8
  %3 = load ptr, ptr %2, align 8
  %4 = icmp ne ptr %3, null
  br i1 %4, label %6, label %5

5:                                                ; preds = %1
  br label %39

6:                                                ; preds = %1
  %7 = load ptr, ptr %2, align 8
  %8 = getelementptr inbounds nuw %struct._rtp_dyn_payload_t, ptr %7, i32 0, i32 1
  %9 = load i64, ptr %8, align 8
  %10 = icmp ugt i64 %9, 0
  br i1 %10, label %11, label %16

11:                                               ; preds = %6
  %12 = load ptr, ptr %2, align 8
  %13 = getelementptr inbounds nuw %struct._rtp_dyn_payload_t, ptr %12, i32 0, i32 1
  %14 = load i64, ptr %13, align 8
  %15 = add i64 %14, -1
  store i64 %15, ptr %13, align 8
  br label %16

16:                                               ; preds = %11, %6
  %17 = load ptr, ptr %2, align 8
  %18 = getelementptr inbounds nuw %struct._rtp_dyn_payload_t, ptr %17, i32 0, i32 1
  %19 = load i64, ptr %18, align 8
  %20 = icmp eq i64 %19, 0
  br i1 %20, label %21, label %39

21:                                               ; preds = %16
  %22 = load ptr, ptr @rtp_dyn_payloads, align 8
  %23 = load ptr, ptr %2, align 8
  %24 = call i32 @g_hash_table_remove(ptr noundef %22, ptr noundef %23)
  %25 = icmp ne i32 %24, 0
  br i1 %25, label %27, label %26

26:                                               ; preds = %21
  br label %27

27:                                               ; preds = %26, %21
  %28 = load ptr, ptr %2, align 8
  %29 = getelementptr inbounds nuw %struct._rtp_dyn_payload_t, ptr %28, i32 0, i32 0
  %30 = load ptr, ptr %29, align 8
  %31 = icmp ne ptr %30, null
  br i1 %31, label %32, label %36

32:                                               ; preds = %27
  %33 = load ptr, ptr %2, align 8
  %34 = getelementptr inbounds nuw %struct._rtp_dyn_payload_t, ptr %33, i32 0, i32 0
  %35 = load ptr, ptr %34, align 8
  call void @g_hash_table_destroy(ptr noundef %35)
  br label %36

36:                                               ; preds = %32, %27
  %37 = call ptr @wmem_file_scope()
  %38 = load ptr, ptr %2, align 8
  call void @wmem_free(ptr noundef %37, ptr noundef %38)
  br label %39

39:                                               ; preds = %5, %36, %16
  ret void
}