; Function Attrs: null_pointer_is_valid sspstrong uwtable
define void @rtp_dyn_payload_free(ptr noundef %0) local_unnamed_addr #1 {
  %.not = icmp eq ptr %0, null
  br i1 %.not, label %14, label %2

2:                                                ; preds = %1
  %3 = getelementptr inbounds nuw i8, ptr %0, i64 8
  %4 = load i64, ptr %3, align 8
  %.not10 = icmp eq i64 %4, 0
  br i1 %.not10, label %.thread, label %5

5:                                                ; preds = %2
  %6 = add i64 %4, -1
  store i64 %6, ptr %3, align 8
  %7 = icmp eq i64 %6, 0
  br i1 %7, label %.thread, label %14

.thread:                                          ; preds = %2, %5
  %8 = load ptr, ptr @rtp_dyn_payloads, align 8
  %9 = tail call i32 @g_hash_table_remove(ptr noundef %8, ptr noundef nonnull %0)
  %10 = load ptr, ptr %0, align 8
  %.not11 = icmp eq ptr %10, null
  br i1 %.not11, label %12, label %11

11:                                               ; preds = %.thread
  tail call void @g_hash_table_destroy(ptr noundef nonnull %10)
  br label %12

12:                                               ; preds = %11, %.thread
  %13 = tail call ptr @wmem_file_scope()
  tail call void @wmem_free(ptr noundef %13, ptr noundef nonnull %0)
  br label %14

14:                                               ; preds = %1, %12, %5
  ret void
}